; Function Attrs: mustprogress nofree norecurse nosync nounwind willreturn memory(argmem: write) uwtable
define void @_ZN6icu_7513BreakIteratorC2Ev(ptr nocapture noundef nonnull writeonly align 8 dereferenceable(479) %this) unnamed_addr #10 align 2 {
entry:
  store ptr getelementptr inbounds ({ [25 x ptr] }, ptr @_ZTVN6icu_7513BreakIteratorE, i64 0, i32 0, i64 2), ptr %this, align 8
  %requestLocale = getelementptr inbounds i8, ptr %this, i64 322
  store i8 0, ptr %requestLocale, align 2
  %actualLocale = getelementptr inbounds i8, ptr %this, i64 8
  store i8 0, ptr %actualLocale, align 8
  %validLocale = getelementptr inbounds i8, ptr %this, i64 165
  store i8 0, ptr %validLocale, align 1
  ret void
}